; Function Attrs: mustprogress uwtable
define noundef ptr @_ZN14MenuEditAction12createWidgetEP7QWidget(ptr noundef nonnull align 8 dereferenceable(72) %0, ptr noundef %1) unnamed_addr #0 align 2 personality ptr @__gxx_personality_v0 {
  %3 = alloca { i64, i64 }, align 8
  %4 = alloca { i64, i64 }, align 8
  %5 = alloca %"class.QMetaObject::Connection", align 8
  %6 = tail call noalias noundef nonnull dereferenceable(40) ptr @_Znwm(i64 noundef 40) #23
  invoke void @_ZN9QLineEditC1EP7QWidget(ptr noundef nonnull align 8 dereferenceable(40) %6, ptr noundef %1)
          to label %7 unwind label %18

7:                                                ; preds = %2
  %8 = getelementptr inbounds i8, ptr %0, i64 64
  store ptr %6, ptr %8, align 8
  tail call void @_ZN9QLineEdit12setAlignmentE6QFlagsIN2Qt13AlignmentFlagEE(ptr noundef nonnull align 8 dereferenceable(40) %6, i32 2)
  %9 = load ptr, ptr %8, align 8
  %10 = getelementptr inbounds i8, ptr %0, i64 40
  tail call void @_ZN9QLineEdit7setTextERK7QString(ptr noundef nonnull align 8 dereferenceable(40) %9, ptr noundef nonnull align 8 dereferenceable(24) %10)
  %11 = load ptr, ptr %8, align 8
  %12 = getelementptr inbounds i8, ptr %0, i64 16
  tail call void @_ZN9QLineEdit18setPlaceholderTextERK7QString(ptr noundef nonnull align 8 dereferenceable(40) %11, ptr noundef nonnull align 8 dereferenceable(24) %12)
  %13 = load ptr, ptr %8, align 8
  call void @llvm.lifetime.start.p0(i64 16, ptr nonnull %3)
  call void @llvm.lifetime.start.p0(i64 16, ptr nonnull %4)
  store i64 ptrtoint (ptr @_ZN9QLineEdit13returnPressedEv to i64), ptr %3, align 8, !noalias !4
  %.fca.1.gep14.i = getelementptr inbounds i8, ptr %3, i64 8
  store i64 0, ptr %.fca.1.gep14.i, align 8, !noalias !4
  store i64 ptrtoint (ptr @_ZN14MenuEditAction12triggerEntryEv to i64), ptr %4, align 8, !noalias !4
  %.fca.1.gep.i = getelementptr inbounds i8, ptr %4, i64 8
  store i64 0, ptr %.fca.1.gep.i, align 8, !noalias !4
  %14 = tail call noalias noundef nonnull dereferenceable(32) ptr @_Znwm(i64 noundef 32) #23, !noalias !4
  store i32 1, ptr %14, align 4, !noalias !4
  %15 = getelementptr inbounds i8, ptr %14, i64 8
  store ptr @_ZN9QtPrivate11QSlotObjectIM14MenuEditActionFvvENS_4ListIJEEEvE4implEiPNS_15QSlotObjectBaseEP7QObjectPPvPb, ptr %15, align 8, !noalias !4
  %16 = getelementptr inbounds i8, ptr %14, i64 16
  store i64 ptrtoint (ptr @_ZN14MenuEditAction12triggerEntryEv to i64), ptr %16, align 8, !noalias !4
  %.repack7.i.i = getelementptr inbounds i8, ptr %14, i64 24
  store i64 0, ptr %.repack7.i.i, align 8, !noalias !4
  call void @_ZN7QObject11connectImplEPKS_PPvS1_S3_PN9QtPrivate15QSlotObjectBaseEN2Qt14ConnectionTypeEPKiPK11QMetaObject(ptr dead_on_unwind nonnull writable sret(%"class.QMetaObject::Connection") align 8 %5, ptr noundef %13, ptr noundef nonnull %3, ptr noundef nonnull %0, ptr noundef nonnull %4, ptr noundef nonnull %14, i32 noundef 0, ptr noundef null, ptr noundef nonnull @_ZN9QLineEdit16staticMetaObjectE)
  call void @llvm.lifetime.end.p0(i64 16, ptr nonnull %3)
  call void @llvm.lifetime.end.p0(i64 16, ptr nonnull %4)
  call void @_ZN11QMetaObject10ConnectionD1Ev(ptr noundef nonnull align 8 dereferenceable(8) %5) #24
  %17 = load ptr, ptr %8, align 8
  ret ptr %17

18:                                               ; preds = %2
  %19 = landingpad { ptr, i32 }
          cleanup
  tail call void @_ZdlPv(ptr noundef nonnull %6) #25
  resume { ptr, i32 } %19
}